target datalayout = "e-m:e-p270:32:32-p271:32:32-p272:64:64-i64:64-i128:128-f80:128-n8:16:32:64-S128"
target triple = "x86_64-pc-linux-gnu"

%struct.ForEachState = type { ptr, i32 }
%struct.Plan = type { i32, i32, double, double, double, i32, i8, i8, i8, i32, ptr, ptr, ptr, ptr, ptr, ptr, ptr }
%struct.LockRowsState = type { %struct.PlanState, ptr, %struct.EPQState }
%struct.PlanState = type { i32, ptr, ptr, ptr, ptr, ptr, ptr, ptr, ptr, ptr, ptr, ptr, ptr, ptr, ptr, ptr, ptr, ptr, i8, ptr, ptr, ptr, ptr, ptr, i8, i8, i8, i8, i8, i8, i8, i8 }
%struct.EPQState = type { ptr, i32, ptr, ptr, ptr, ptr, ptr, ptr, ptr, ptr, ptr, ptr, ptr }
%struct.LockRows = type { %struct.Plan, ptr, i32 }
%struct.List = type { i32, i32, i32, ptr, [0 x %union.ListCell] }
%union.ListCell = type { ptr }
%struct.PlanRowMark = type { i32, i32, i32, i32, i32, i32, i32, i32, i8 }
%struct.EState = type { i32, i32, ptr, ptr, ptr, i32, ptr, ptr, ptr, ptr, ptr, ptr, ptr, ptr, ptr, ptr, i32, ptr, ptr, ptr, ptr, ptr, ptr, ptr, ptr, ptr, ptr, i64, i64, i32, i32, i8, ptr, ptr, ptr, ptr, ptr, i8, i32, i32, ptr, i32, ptr, ptr, ptr, ptr }
%struct.ExecRowMark = type { ptr, i32, i32, i32, i32, i32, i32, i32, i8, %struct.ItemPointerData, ptr }
%struct.ItemPointerData = type { %struct.BlockIdData, i16 }
%struct.BlockIdData = type { i16, i16 }
%struct.Node = type { i32 }

; Function Attrs: inlinehint nounwind uwtable
define internal ptr @newNode(i64 noundef %0, i32 noundef %1) #2 {
  %3 = alloca i64, align 8
  %4 = alloca i32, align 4
  %5 = alloca ptr, align 8
  store i64 %0, ptr %3, align 8
  store i32 %1, ptr %4, align 4
  call void @llvm.lifetime.start.p0(i64 8, ptr %5) #8
  %6 = load i64, ptr %3, align 8
  %7 = call ptr @palloc0(i64 noundef %6)
  store ptr %7, ptr %5, align 8
  %8 = load i32, ptr %4, align 4
  %9 = load ptr, ptr %5, align 8
  %10 = getelementptr inbounds nuw %struct.Node, ptr %9, i32 0, i32 0
  store i32 %8, ptr %10, align 4
  %11 = load ptr, ptr %5, align 8
  call void @llvm.lifetime.end.p0(i64 8, ptr %5) #8
  ret ptr %11
}

; Function Attrs: nounwind uwtable
define dso_local ptr @ExecInitLockRows(ptr noundef %0, ptr noundef %1, i32 noundef %2) #0 {
  %4 = alloca ptr, align 8
  %5 = alloca ptr, align 8
  %6 = alloca i32, align 4
  %7 = alloca ptr, align 8
  %8 = alloca ptr, align 8
  %9 = alloca ptr, align 8
  %10 = alloca ptr, align 8
  %11 = alloca %struct.ForEachState, align 8
  %12 = alloca i32, align 4
  %13 = alloca ptr, align 8
  %14 = alloca ptr, align 8
  %15 = alloca ptr, align 8
  store ptr %0, ptr %4, align 8
  store ptr %1, ptr %5, align 8
  store i32 %2, ptr %6, align 4
  call void @llvm.lifetime.start.p0(i64 8, ptr %7) #8
  call void @llvm.lifetime.start.p0(i64 8, ptr %8) #8
  %16 = load ptr, ptr %4, align 8
  %17 = getelementptr inbounds nuw %struct.Plan, ptr %16, i32 0, i32 12
  %18 = load ptr, ptr %17, align 8
  store ptr %18, ptr %8, align 8
  call void @llvm.lifetime.start.p0(i64 8, ptr %9) #8
  call void @llvm.lifetime.start.p0(i64 8, ptr %10) #8
  %19 = call ptr @newNode(i64 noundef 312, i32 noundef 435)
  store ptr %19, ptr %7, align 8
  %20 = load ptr, ptr %4, align 8
  %21 = load ptr, ptr %7, align 8
  %22 = getelementptr inbounds nuw %struct.LockRowsState, ptr %21, i32 0, i32 0
  %23 = getelementptr inbounds nuw %struct.PlanState, ptr %22, i32 0, i32 1
  store ptr %20, ptr %23, align 8
  %24 = load ptr, ptr %5, align 8
  %25 = load ptr, ptr %7, align 8
  %26 = getelementptr inbounds nuw %struct.LockRowsState, ptr %25, i32 0, i32 0
  %27 = getelementptr inbounds nuw %struct.PlanState, ptr %26, i32 0, i32 2
  store ptr %24, ptr %27, align 8
  %28 = load ptr, ptr %7, align 8
  %29 = getelementptr inbounds nuw %struct.LockRowsState, ptr %28, i32 0, i32 0
  %30 = getelementptr inbounds nuw %struct.PlanState, ptr %29, i32 0, i32 3
  store ptr @ExecLockRows, ptr %30, align 8
  %31 = load ptr, ptr %7, align 8
  %32 = getelementptr inbounds nuw %struct.LockRowsState, ptr %31, i32 0, i32 0
  call void @ExecInitResultTypeTL(ptr noundef %32)
  %33 = load ptr, ptr %8, align 8
  %34 = load ptr, ptr %5, align 8
  %35 = load i32, ptr %6, align 4
  %36 = call ptr @ExecInitNode(ptr noundef %33, ptr noundef %34, i32 noundef %35)
  %37 = load ptr, ptr %7, align 8
  %38 = getelementptr inbounds nuw %struct.PlanState, ptr %37, i32 0, i32 9
  store ptr %36, ptr %38, align 8
  %39 = load ptr, ptr %7, align 8
  %40 = getelementptr inbounds nuw %struct.LockRowsState, ptr %39, i32 0, i32 0
  %41 = getelementptr inbounds nuw %struct.PlanState, ptr %40, i32 0, i32 31
  store i8 1, ptr %41, align 1
  %42 = load ptr, ptr %7, align 8
  %43 = getelementptr inbounds nuw %struct.PlanState, ptr %42, i32 0, i32 9
  %44 = load ptr, ptr %43, align 8
  %45 = load ptr, ptr %7, align 8
  %46 = getelementptr inbounds nuw %struct.LockRowsState, ptr %45, i32 0, i32 0
  %47 = getelementptr inbounds nuw %struct.PlanState, ptr %46, i32 0, i32 27
  %48 = call ptr @ExecGetResultSlotOps(ptr noundef %44, ptr noundef %47)
  %49 = load ptr, ptr %7, align 8
  %50 = getelementptr inbounds nuw %struct.LockRowsState, ptr %49, i32 0, i32 0
  %51 = getelementptr inbounds nuw %struct.PlanState, ptr %50, i32 0, i32 23
  store ptr %48, ptr %51, align 8
  %52 = load ptr, ptr %7, align 8
  %53 = getelementptr inbounds nuw %struct.LockRowsState, ptr %52, i32 0, i32 0
  %54 = getelementptr inbounds nuw %struct.PlanState, ptr %53, i32 0, i32 17
  store ptr null, ptr %54, align 8
  %55 = load ptr, ptr %7, align 8
  %56 = getelementptr inbounds nuw %struct.LockRowsState, ptr %55, i32 0, i32 1
  store ptr null, ptr %56, align 8
  store ptr null, ptr %9, align 8
  call void @llvm.lifetime.start.p0(i64 16, ptr %11) #8
  %57 = getelementptr inbounds nuw %struct.ForEachState, ptr %11, i32 0, i32 0
  %58 = load ptr, ptr %4, align 8
  %59 = getelementptr inbounds nuw %struct.LockRows, ptr %58, i32 0, i32 1
  %60 = load ptr, ptr %59, align 8
  store ptr %60, ptr %57, align 8
  %61 = getelementptr inbounds nuw %struct.ForEachState, ptr %11, i32 0, i32 1
  store i32 0, ptr %61, align 8
  %62 = getelementptr i8, ptr %11, i64 12
  call void @llvm.memset.p0.i64(ptr align 4 %62, i8 0, i64 4, i1 false)
  br label %63

63:                                               ; preds = %136, %3
  %64 = getelementptr inbounds nuw %struct.ForEachState, ptr %11, i32 0, i32 0
  %65 = load ptr, ptr %64, align 8
  %66 = icmp ne ptr %65, null
  br i1 %66, label %67, label %84

67:                                               ; preds = %63
  %68 = getelementptr inbounds nuw %struct.ForEachState, ptr %11, i32 0, i32 1
  %69 = load i32, ptr %68, align 8
  %70 = getelementptr inbounds nuw %struct.ForEachState, ptr %11, i32 0, i32 0
  %71 = load ptr, ptr %70, align 8
  %72 = getelementptr inbounds nuw %struct.List, ptr %71, i32 0, i32 1
  %73 = load i32, ptr %72, align 4
  %74 = icmp slt i32 %69, %73
  br i1 %74, label %75, label %84

75:                                               ; preds = %67
  %76 = getelementptr inbounds nuw %struct.ForEachState, ptr %11, i32 0, i32 0
  %77 = load ptr, ptr %76, align 8
  %78 = getelementptr inbounds nuw %struct.List, ptr %77, i32 0, i32 3
  %79 = load ptr, ptr %78, align 8
  %80 = getelementptr inbounds nuw %struct.ForEachState, ptr %11, i32 0, i32 1
  %81 = load i32, ptr %80, align 8
  %82 = sext i32 %81 to i64
  %83 = getelementptr inbounds %union.ListCell, ptr %79, i64 %82
  store ptr %83, ptr %10, align 8
  br label %85

84:                                               ; preds = %67, %63
  store ptr null, ptr %10, align 8
  br label %85

85:                                               ; preds = %84, %75
  %86 = phi i32 [ 1, %75 ], [ 0, %84 ]
  %87 = icmp ne i32 %86, 0
  br i1 %87, label %89, label %88

88:                                               ; preds = %85
  store i32 2, ptr %12, align 4
  call void @llvm.lifetime.end.p0(i64 16, ptr %11) #8
  br label %140

89:                                               ; preds = %85
  call void @llvm.lifetime.start.p0(i64 8, ptr %13) #8
  %90 = load ptr, ptr %10, align 8
  %91 = load ptr, ptr %90, align 8
  store ptr %91, ptr %13, align 8
  call void @llvm.lifetime.start.p0(i64 8, ptr %14) #8
  call void @llvm.lifetime.start.p0(i64 8, ptr %15) #8
  %92 = load ptr, ptr %13, align 8
  %93 = getelementptr inbounds nuw %struct.PlanRowMark, ptr %92, i32 0, i32 8
  %94 = load i8, ptr %93, align 4, !range !4, !noundef !5
  %95 = trunc i8 %94 to i1
  br i1 %95, label %104, label %96

96:                                               ; preds = %89
  %97 = load ptr, ptr %13, align 8
  %98 = getelementptr inbounds nuw %struct.PlanRowMark, ptr %97, i32 0, i32 1
  %99 = load i32, ptr %98, align 4
  %100 = load ptr, ptr %5, align 8
  %101 = getelementptr inbounds nuw %struct.EState, ptr %100, i32 0, i32 13
  %102 = load ptr, ptr %101, align 8
  %103 = call zeroext i1 @bms_is_member(i32 noundef %99, ptr noundef %102)
  br i1 %103, label %105, label %104

104:                                              ; preds = %96, %89
  store i32 4, ptr %12, align 4
  br label %133

105:                                              ; preds = %96
  %106 = load ptr, ptr %5, align 8
  %107 = load ptr, ptr %13, align 8
  %108 = getelementptr inbounds nuw %struct.PlanRowMark, ptr %107, i32 0, i32 1
  %109 = load i32, ptr %108, align 4
  %110 = call ptr @ExecFindRowMark(ptr noundef %106, i32 noundef %109, i1 noundef zeroext false)
  store ptr %110, ptr %14, align 8
  %111 = load ptr, ptr %14, align 8
  %112 = load ptr, ptr %8, align 8
  %113 = getelementptr inbounds nuw %struct.Plan, ptr %112, i32 0, i32 10
  %114 = load ptr, ptr %113, align 8
  %115 = call ptr @ExecBuildAuxRowMark(ptr noundef %111, ptr noundef %114)
  store ptr %115, ptr %15, align 8
  %116 = load ptr, ptr %14, align 8
  %117 = getelementptr inbounds nuw %struct.ExecRowMark, ptr %116, i32 0, i32 5
  %118 = load i32, ptr %117, align 8
  %119 = icmp ule i32 %118, 3
  br i1 %119, label %120, label %128

120:                                              ; preds = %105
  %121 = load ptr, ptr %7, align 8
  %122 = getelementptr inbounds nuw %struct.LockRowsState, ptr %121, i32 0, i32 1
  %123 = load ptr, ptr %122, align 8
  %124 = load ptr, ptr %15, align 8
  %125 = call ptr @lappend(ptr noundef %123, ptr noundef %124)
  %126 = load ptr, ptr %7, align 8
  %127 = getelementptr inbounds nuw %struct.LockRowsState, ptr %126, i32 0, i32 1
  store ptr %125, ptr %127, align 8
  br label %132

128:                                              ; preds = %105
  %129 = load ptr, ptr %9, align 8
  %130 = load ptr, ptr %15, align 8
  %131 = call ptr @lappend(ptr noundef %129, ptr noundef %130)
  store ptr %131, ptr %9, align 8
  br label %132

132:                                              ; preds = %128, %120
  store i32 0, ptr %12, align 4
  br label %133

133:                                              ; preds = %132, %104
  call void @llvm.lifetime.end.p0(i64 8, ptr %15) #8
  call void @llvm.lifetime.end.p0(i64 8, ptr %14) #8
  call void @llvm.lifetime.end.p0(i64 8, ptr %13) #8
  %134 = load i32, ptr %12, align 4
  switch i32 %134, label %150 [
    i32 0, label %135
    i32 4, label %136
  ]

135:                                              ; preds = %133
  br label %136

136:                                              ; preds = %135, %133
  %137 = getelementptr inbounds nuw %struct.ForEachState, ptr %11, i32 0, i32 1
  %138 = load i32, ptr %137, align 8
  %139 = add i32 %138, 1
  store i32 %139, ptr %137, align 8
  br label %63, !llvm.loop !6

140:                                              ; preds = %88
  %141 = load ptr, ptr %7, align 8
  %142 = getelementptr inbounds nuw %struct.LockRowsState, ptr %141, i32 0, i32 2
  %143 = load ptr, ptr %5, align 8
  %144 = load ptr, ptr %8, align 8
  %145 = load ptr, ptr %9, align 8
  %146 = load ptr, ptr %4, align 8
  %147 = getelementptr inbounds nuw %struct.LockRows, ptr %146, i32 0, i32 2
  %148 = load i32, ptr %147, align 8
  call void @EvalPlanQualInit(ptr noundef %142, ptr noundef %143, ptr noundef %144, ptr noundef %145, i32 noundef %148, ptr noundef null)
  %149 = load ptr, ptr %7, align 8
  store i32 1, ptr %12, align 4
  call void @llvm.lifetime.end.p0(i64 8, ptr %10) #8
  call void @llvm.lifetime.end.p0(i64 8, ptr %9) #8
  call void @llvm.lifetime.end.p0(i64 8, ptr %8) #8
  call void @llvm.lifetime.end.p0(i64 8, ptr %7) #8
  ret ptr %149

150:                                              ; preds = %133
  unreachable
}