; Function Attrs: nounwind uwtable
define dso_local noundef ptr @ExecInitLockRows(ptr noundef %0, ptr noundef %1, i32 noundef %2) local_unnamed_addr #0 {
  %4 = getelementptr inbounds nuw i8, ptr %0, i64 64
  %5 = load ptr, ptr %4, align 8
  %6 = tail call noundef ptr @palloc0(i64 noundef 312) #6
  store i32 435, ptr %6, align 4
  %7 = getelementptr inbounds nuw i8, ptr %6, i64 8
  store ptr %0, ptr %7, align 8
  %8 = getelementptr inbounds nuw i8, ptr %6, i64 16
  store ptr %1, ptr %8, align 8
  %9 = getelementptr inbounds nuw i8, ptr %6, i64 24
  store ptr @ExecLockRows, ptr %9, align 8
  tail call void @ExecInitResultTypeTL(ptr noundef nonnull %6) #6
  %10 = tail call ptr @ExecInitNode(ptr noundef %5, ptr noundef %1, i32 noundef %2) #6
  %11 = getelementptr inbounds nuw i8, ptr %6, i64 72
  store ptr %10, ptr %11, align 8
  %12 = getelementptr inbounds nuw i8, ptr %6, i64 199
  store i8 1, ptr %12, align 1
  %13 = getelementptr inbounds nuw i8, ptr %6, i64 195
  %14 = tail call ptr @ExecGetResultSlotOps(ptr noundef %10, ptr noundef nonnull %13) #6
  %15 = getelementptr inbounds nuw i8, ptr %6, i64 184
  store ptr %14, ptr %15, align 8
  %16 = getelementptr inbounds nuw i8, ptr %6, i64 136
  store ptr null, ptr %16, align 8
  %17 = getelementptr inbounds nuw i8, ptr %6, i64 200
  store ptr null, ptr %17, align 8
  %18 = getelementptr inbounds nuw i8, ptr %0, i64 104
  %19 = load ptr, ptr %18, align 8
  %20 = getelementptr inbounds nuw i8, ptr %19, i64 4
  %.not = icmp eq ptr %19, null
  br i1 %.not, label %._crit_edge, label %.lr.ph

.lr.ph:                                           ; preds = %3
  %21 = getelementptr inbounds nuw i8, ptr %19, i64 16
  %22 = getelementptr inbounds nuw i8, ptr %1, i64 96
  %23 = getelementptr inbounds nuw i8, ptr %5, i64 48
  %24 = load i32, ptr %20, align 4
  %25 = icmp sgt i32 %24, 0
  br i1 %25, label %.lr.ph53, label %._crit_edge

._crit_edge:                                      ; preds = %53, %.lr.ph, %3
  %.0.lcssa = phi ptr [ null, %3 ], [ null, %.lr.ph ], [ %.1, %53 ]
  %26 = getelementptr inbounds nuw i8, ptr %6, i64 208
  %27 = getelementptr inbounds nuw i8, ptr %0, i64 112
  %28 = load i32, ptr %27, align 8
  tail call void @EvalPlanQualInit(ptr noundef nonnull %26, ptr noundef %1, ptr noundef %5, ptr noundef %.0.lcssa, i32 noundef %28, ptr noundef null) #6
  ret ptr %6

.lr.ph53:                                         ; preds = %.lr.ph, %53
  %indvars.iv = phi i64 [ %indvars.iv.next, %53 ], [ 0, %.lr.ph ]
  %.04751 = phi ptr [ %.1, %53 ], [ null, %.lr.ph ]
  %29 = load ptr, ptr %21, align 8
  %30 = getelementptr inbounds nuw %union.ListCell, ptr %29, i64 %indvars.iv
  %31 = load ptr, ptr %30, align 8
  %32 = getelementptr inbounds nuw i8, ptr %31, i64 32
  %33 = load i8, ptr %32, align 4, !range !4, !noundef !5
  %34 = trunc nuw i8 %33 to i1
  br i1 %34, label %53, label %35

35:                                               ; preds = %.lr.ph53
  %36 = getelementptr inbounds nuw i8, ptr %31, i64 4
  %37 = load i32, ptr %36, align 4
  %38 = load ptr, ptr %22, align 8
  %39 = tail call zeroext i1 @bms_is_member(i32 noundef %37, ptr noundef %38) #6
  br i1 %39, label %40, label %53

40:                                               ; preds = %35
  %41 = load i32, ptr %36, align 4
  %42 = tail call ptr @ExecFindRowMark(ptr noundef nonnull %1, i32 noundef %41, i1 noundef zeroext false) #6
  %43 = load ptr, ptr %23, align 8
  %44 = tail call ptr @ExecBuildAuxRowMark(ptr noundef %42, ptr noundef %43) #6
  %45 = getelementptr inbounds nuw i8, ptr %42, i64 24
  %46 = load i32, ptr %45, align 8
  %47 = icmp ult i32 %46, 4
  br i1 %47, label %48, label %51

48:                                               ; preds = %40
  %49 = load ptr, ptr %17, align 8
  %50 = tail call ptr @lappend(ptr noundef %49, ptr noundef %44) #6
  store ptr %50, ptr %17, align 8
  br label %53

51:                                               ; preds = %40
  %52 = tail call ptr @lappend(ptr noundef %.04751, ptr noundef %44) #6
  br label %53

53:                                               ; preds = %48, %51, %.lr.ph53, %35
  %.1 = phi ptr [ %.04751, %35 ], [ %.04751, %.lr.ph53 ], [ %.04751, %48 ], [ %52, %51 ]
  %indvars.iv.next = add nuw nsw i64 %indvars.iv, 1
  %54 = load i32, ptr %20, align 4
  %55 = sext i32 %54 to i64
  %56 = icmp slt i64 %indvars.iv.next, %55
  br i1 %56, label %.lr.ph53, label %._crit_edge
}